target datalayout = "e-m:e-p270:32:32-p271:32:32-p272:64:64-i64:64-i128:128-f80:128-n8:16:32:64-S128"
target triple = "x86_64-pc-linux-gnu"

@s_local_block_callback_table = internal global ptr null, align 8
@.str.269 = private unnamed_addr constant [19 x i8] c"PCAPNG File Format\00", align 1
@.str.270 = private unnamed_addr constant [12 x i8] c"File-PCAPNG\00", align 1
@.str.271 = private unnamed_addr constant [12 x i8] c"file-pcapng\00", align 1
@proto_pcapng = internal global i32 0, align 4
@.str.272 = private unnamed_addr constant [8 x i8] c"version\00", align 1
@.str.273 = private unnamed_addr constant [20 x i8] c"PCAPNG version: 1.0\00", align 1
@.str.274 = private unnamed_addr constant [52 x i8] c"Version of file-format supported by this dissector.\00", align 1
@.str.275 = private unnamed_addr constant [19 x i8] c"dissect_next_layer\00", align 1
@.str.276 = private unnamed_addr constant [19 x i8] c"Dissect next layer\00", align 1
@pref_dissect_next_layer = internal global i8 0, align 1

; Function Attrs: null_pointer_is_valid sspstrong uwtable
define hidden void @proto_register_pcapng() #0 {
  %1 = alloca ptr, align 8
  %2 = alloca ptr, align 8
  call void @llvm.lifetime.start.p0(i64 8, ptr %1) #14
  call void @llvm.lifetime.start.p0(i64 8, ptr %2) #14
  %3 = call i32 @proto_register_protocol(ptr noundef @.str.269, ptr noundef @.str.270, ptr noundef @.str.271)
  store i32 %3, ptr @proto_pcapng, align 4
  %4 = load i32, ptr @proto_pcapng, align 4
  call void @proto_register_field_array(i32 noundef %4, ptr noundef @proto_register_pcapng.hf, i32 noundef 119)
  call void @proto_register_subtree_array(ptr noundef @proto_register_pcapng.ett, i32 noundef 9)
  %5 = load i32, ptr @proto_pcapng, align 4
  %6 = call ptr @register_dissector(ptr noundef @.str.271, ptr noundef @dissect_pcapng, i32 noundef %5)
  %7 = load i32, ptr @proto_pcapng, align 4
  %8 = call ptr @prefs_register_protocol(i32 noundef %7, ptr noundef null)
  store ptr %8, ptr %1, align 8
  %9 = load ptr, ptr %1, align 8
  call void @prefs_register_static_text_preference(ptr noundef %9, ptr noundef @.str.272, ptr noundef @.str.273, ptr noundef @.str.274)
  %10 = load ptr, ptr %1, align 8
  call void @prefs_register_bool_preference(ptr noundef %10, ptr noundef @.str.275, ptr noundef @.str.276, ptr noundef @.str.276, ptr noundef @pref_dissect_next_layer)
  %11 = load i32, ptr @proto_pcapng, align 4
  %12 = call ptr @expert_register_protocol(i32 noundef %11)
  store ptr %12, ptr %2, align 8
  %13 = load ptr, ptr %2, align 8
  call void @expert_register_field_array(ptr noundef %13, ptr noundef @proto_register_pcapng.ei, i32 noundef 8)
  %14 = call ptr @g_hash_table_new(ptr noundef @g_direct_hash, ptr noundef @g_direct_equal)
  store ptr %14, ptr @s_local_block_callback_table, align 8
  call void @register_shutdown_routine(ptr noundef @pcapng_shutdown_protocol)
  call void @llvm.lifetime.end.p0(i64 8, ptr %2) #14
  call void @llvm.lifetime.end.p0(i64 8, ptr %1) #14
  ret void
}