; Function Attrs: null_pointer_is_valid sspstrong uwtable
define hidden void @proto_register_pcapng() local_unnamed_addr #0 {
  %1 = tail call i32 @proto_register_protocol(ptr noundef nonnull @.str.269, ptr noundef nonnull @.str.270, ptr noundef nonnull @.str.271)
  store i32 %1, ptr @proto_pcapng, align 4
  tail call void @proto_register_field_array(i32 noundef %1, ptr noundef nonnull @proto_register_pcapng.hf, i32 noundef 119)
  tail call void @proto_register_subtree_array(ptr noundef nonnull @proto_register_pcapng.ett, i32 noundef 9)
  %2 = load i32, ptr @proto_pcapng, align 4
  %3 = tail call ptr @register_dissector(ptr noundef nonnull @.str.271, ptr noundef nonnull @dissect_pcapng, i32 noundef %2)
  %4 = load i32, ptr @proto_pcapng, align 4
  %5 = tail call ptr @prefs_register_protocol(i32 noundef %4, ptr noundef null)
  tail call void @prefs_register_static_text_preference(ptr noundef %5, ptr noundef nonnull @.str.272, ptr noundef nonnull @.str.273, ptr noundef nonnull @.str.274)
  tail call void @prefs_register_bool_preference(ptr noundef %5, ptr noundef nonnull @.str.275, ptr noundef nonnull @.str.276, ptr noundef nonnull @.str.276, ptr noundef nonnull @pref_dissect_next_layer)
  %6 = load i32, ptr @proto_pcapng, align 4
  %7 = tail call ptr @expert_register_protocol(i32 noundef %6)
  tail call void @expert_register_field_array(ptr noundef %7, ptr noundef nonnull @proto_register_pcapng.ei, i32 noundef 8)
  %8 = tail call ptr @g_hash_table_new(ptr noundef nonnull @g_direct_hash, ptr noundef nonnull @g_direct_equal)
  store ptr %8, ptr @s_local_block_callback_table, align 8
  tail call void @register_shutdown_routine(ptr noundef nonnull @pcapng_shutdown_protocol)
  ret void
}